; Function Attrs: null_pointer_is_valid sspstrong uwtable
define internal void @bsmap_clr_complete(ptr noundef %0, ptr noundef %1, ptr noundef %2, i32 noundef %3, i32 noundef %4, ptr noundef %5) #1 {
  %7 = load i32, ptr @ansi_a_elem_1_max, align 4
  %8 = add i32 %7, -57
  %.not.i = icmp ult i32 %8, -56
  br i1 %.not.i, label %12, label %9

9:                                                ; preds = %6
  %10 = tail call i32 @tvb_reported_length_remaining(ptr noundef %0, i32 noundef %3)
  %11 = and i32 %10, 65535
  br label %elem_t.exit

12:                                               ; preds = %6
  %13 = tail call zeroext i8 @tvb_get_uint8(ptr noundef %0, i32 noundef %3)
  %14 = load ptr, ptr @ansi_a_elem_1_strings, align 8
  %15 = getelementptr i8, ptr %14, i64 1320
  %16 = load i32, ptr %15, align 8
  %17 = trunc i32 %16 to i8
  %18 = icmp eq i8 %13, %17
  br i1 %18, label %19, label %elem_t.exit

19:                                               ; preds = %12
  %20 = zext i8 %13 to i32
  %21 = load i32, ptr @hf_ansi_a_elem_id, align 4
  %22 = getelementptr i8, ptr %14, i64 1328
  %23 = load ptr, ptr %22, align 8
  %24 = tail call ptr (ptr, i32, ptr, i32, i32, i32, ptr, ...) @proto_tree_add_uint_format(ptr noundef %2, i32 noundef %21, ptr noundef %0, i32 noundef %3, i32 noundef 1, i32 noundef %20, ptr noundef nonnull @.str.1003, ptr noundef %23, ptr noundef nonnull @.str.282)
  br label %elem_t.exit

elem_t.exit:                                      ; preds = %9, %12, %19
  %.018.i = phi i32 [ %11, %9 ], [ 1, %19 ], [ 0, %12 ]
  %25 = icmp eq i32 %4, %.018.i
  br i1 %25, label %36, label %26

26:                                               ; preds = %elem_t.exit
  %27 = sub i32 %4, %.018.i
  %28 = add i32 %.018.i, %3
  %29 = tail call fastcc zeroext i16 @elem_tlv(ptr noundef %0, ptr noundef %1, ptr noundef %2, i32 noundef 89, i32 noundef %28, ptr noundef nonnull @.str.282, ptr noundef %5)
  %30 = zext i16 %29 to i32
  %31 = icmp eq i32 %27, %30
  br i1 %31, label %36, label %32

32:                                               ; preds = %26
  %33 = sub i32 %27, %30
  %34 = add i32 %28, %30
  %35 = tail call ptr @proto_tree_add_expert(ptr noundef %2, ptr noundef %1, ptr noundef nonnull @ei_ansi_a_extraneous_data, ptr noundef %0, i32 noundef %34, i32 noundef %33)
  br label %36

36:                                               ; preds = %26, %elem_t.exit, %32
  ret void
}